target datalayout = "e-m:e-p270:32:32-p271:32:32-p272:64:64-i64:64-i128:128-f80:128-n8:16:32:64-S128"
target triple = "x86_64-pc-linux-gnu"

%struct.Vec_Str_t_ = type { i32, i32, ptr }
%struct.Vec_Int_t_ = type { i32, i32, ptr }
%struct.Vec_Bit_t_ = type { i32, i32, ptr }
%struct.Acb_Ntk_t_ = type { ptr, i32, i32, i32, i8, %struct.Vec_Int_t_, %struct.Vec_Int_t_, %struct.Vec_Int_t_, %struct.Vec_Int_t_, i32, i32, i32, i32, i32, %struct.Vec_Str_t_, %struct.Vec_Int_t_, %struct.Vec_Int_t_, %struct.Vec_Int_t_, %struct.Vec_Int_t_, %struct.Vec_Int_t_, %struct.Vec_Wrd_t_, %struct.Vec_Int_t_, %struct.Vec_Int_t_, %struct.Vec_Int_t_, %struct.Vec_Int_t_, %struct.Vec_Int_t_, %struct.Vec_Int_t_, %struct.Vec_Int_t_, %struct.Vec_Int_t_, %struct.Vec_Int_t_, %struct.Vec_Int_t_, %struct.Vec_Int_t_, %struct.Vec_Int_t_, %struct.Vec_Flt_t_, %struct.Vec_Wec_t_, %struct.Vec_Wec_t_, %struct.Vec_Str_t_, %struct.Vec_Int_t_, ptr, %struct.Vec_Int_t_, %struct.Vec_Int_t_, %struct.Vec_Int_t_, %struct.Vec_Int_t_ }
%struct.Vec_Wrd_t_ = type { i32, i32, ptr }
%struct.Vec_Flt_t_ = type { i32, i32, ptr }
%struct.Vec_Wec_t_ = type { i32, i32, ptr }

; Function Attrs: nounwind uwtable
define internal i32 @Vec_IntEntry(ptr noundef %0, i32 noundef %1) #0 {
  %3 = alloca ptr, align 8
  %4 = alloca i32, align 4
  store ptr %0, ptr %3, align 8
  store i32 %1, ptr %4, align 4
  %5 = load ptr, ptr %3, align 8
  %6 = getelementptr inbounds %struct.Vec_Int_t_, ptr %5, i32 0, i32 2
  %7 = load ptr, ptr %6, align 8
  %8 = load i32, ptr %4, align 4
  %9 = sext i32 %8 to i64
  %10 = getelementptr inbounds i32, ptr %7, i64 %9
  %11 = load i32, ptr %10, align 4
  ret i32 %11
}

; Function Attrs: nounwind uwtable
define internal ptr @Vec_IntEntryP(ptr noundef %0, i32 noundef %1) #0 {
  %3 = alloca ptr, align 8
  %4 = alloca i32, align 4
  store ptr %0, ptr %3, align 8
  store i32 %1, ptr %4, align 4
  %5 = load ptr, ptr %3, align 8
  %6 = getelementptr inbounds %struct.Vec_Int_t_, ptr %5, i32 0, i32 2
  %7 = load ptr, ptr %6, align 8
  %8 = load i32, ptr %4, align 4
  %9 = sext i32 %8 to i64
  %10 = getelementptr inbounds i32, ptr %7, i64 %9
  ret ptr %10
}

; Function Attrs: nounwind uwtable
define internal i32 @Acb_ObjFanOffset(ptr noundef %0, i32 noundef %1) #0 {
  %3 = alloca ptr, align 8
  %4 = alloca i32, align 4
  store ptr %0, ptr %3, align 8
  store i32 %1, ptr %4, align 4
  %5 = load ptr, ptr %3, align 8
  %6 = getelementptr inbounds %struct.Acb_Ntk_t_, ptr %5, i32 0, i32 15
  %7 = load i32, ptr %4, align 4
  %8 = call i32 @Vec_IntEntry(ptr noundef %6, i32 noundef %7)
  ret i32 %8
}

; Function Attrs: nounwind uwtable
define internal void @Vec_IntWriteEntry(ptr noundef %0, i32 noundef %1, i32 noundef %2) #0 {
  %4 = alloca ptr, align 8
  %5 = alloca i32, align 4
  %6 = alloca i32, align 4
  store ptr %0, ptr %4, align 8
  store i32 %1, ptr %5, align 4
  store i32 %2, ptr %6, align 4
  %7 = load i32, ptr %6, align 4
  %8 = load ptr, ptr %4, align 8
  %9 = getelementptr inbounds %struct.Vec_Int_t_, ptr %8, i32 0, i32 2
  %10 = load ptr, ptr %9, align 8
  %11 = load i32, ptr %5, align 4
  %12 = sext i32 %11 to i64
  %13 = getelementptr inbounds i32, ptr %10, i64 %12
  store i32 %7, ptr %13, align 4
  ret void
}

; Function Attrs: nounwind uwtable
define internal i32 @Acb_ObjIsTravIdCur(ptr noundef %0, i32 noundef %1) #0 {
  %3 = alloca ptr, align 8
  %4 = alloca i32, align 4
  store ptr %0, ptr %3, align 8
  store i32 %1, ptr %4, align 4
  %5 = load ptr, ptr %3, align 8
  %6 = load i32, ptr %4, align 4
  %7 = call i32 @Acb_ObjTravId(ptr noundef %5, i32 noundef %6)
  %8 = load ptr, ptr %3, align 8
  %9 = getelementptr inbounds %struct.Acb_Ntk_t_, ptr %8, i32 0, i32 11
  %10 = load i32, ptr %9, align 8
  %11 = icmp eq i32 %7, %10
  %12 = zext i1 %11 to i32
  ret i32 %12
}

; Function Attrs: nounwind uwtable
define internal i32 @Acb_ObjTravId(ptr noundef %0, i32 noundef %1) #0 {
  %3 = alloca ptr, align 8
  %4 = alloca i32, align 4
  store ptr %0, ptr %3, align 8
  store i32 %1, ptr %4, align 4
  %5 = load ptr, ptr %3, align 8
  %6 = getelementptr inbounds %struct.Acb_Ntk_t_, ptr %5, i32 0, i32 23
  %7 = load i32, ptr %4, align 4
  %8 = call i32 @Vec_IntEntry(ptr noundef %6, i32 noundef %7)
  ret i32 %8
}

; Function Attrs: nounwind uwtable
define internal void @Vec_BitWriteEntry(ptr noundef %0, i32 noundef %1, i32 noundef %2) #0 {
  %4 = alloca ptr, align 8
  %5 = alloca i32, align 4
  %6 = alloca i32, align 4
  store ptr %0, ptr %4, align 8
  store i32 %1, ptr %5, align 4
  store i32 %2, ptr %6, align 4
  %7 = load i32, ptr %6, align 4
  %8 = icmp eq i32 %7, 1
  br i1 %8, label %9, label %22

9:                                                ; preds = %3
  %10 = load i32, ptr %5, align 4
  %11 = and i32 %10, 31
  %12 = shl i32 1, %11
  %13 = load ptr, ptr %4, align 8
  %14 = getelementptr inbounds %struct.Vec_Bit_t_, ptr %13, i32 0, i32 2
  %15 = load ptr, ptr %14, align 8
  %16 = load i32, ptr %5, align 4
  %17 = ashr i32 %16, 5
  %18 = sext i32 %17 to i64
  %19 = getelementptr inbounds i32, ptr %15, i64 %18
  %20 = load i32, ptr %19, align 4
  %21 = or i32 %20, %12
  store i32 %21, ptr %19, align 4
  br label %41

22:                                               ; preds = %3
  %23 = load i32, ptr %6, align 4
  %24 = icmp eq i32 %23, 0
  br i1 %24, label %25, label %39

25:                                               ; preds = %22
  %26 = load i32, ptr %5, align 4
  %27 = and i32 %26, 31
  %28 = shl i32 1, %27
  %29 = xor i32 %28, -1
  %30 = load ptr, ptr %4, align 8
  %31 = getelementptr inbounds %struct.Vec_Bit_t_, ptr %30, i32 0, i32 2
  %32 = load ptr, ptr %31, align 8
  %33 = load i32, ptr %5, align 4
  %34 = ashr i32 %33, 5
  %35 = sext i32 %34 to i64
  %36 = getelementptr inbounds i32, ptr %32, i64 %35
  %37 = load i32, ptr %36, align 4
  %38 = and i32 %37, %29
  store i32 %38, ptr %36, align 4
  br label %40

39:                                               ; preds = %22
  br label %40

40:                                               ; preds = %39, %25
  br label %41

41:                                               ; preds = %40, %9
  ret void
}

; Function Attrs: nounwind uwtable
define internal i32 @Acb_ObjSetTravIdPrev(ptr noundef %0, i32 noundef %1) #0 {
  %3 = alloca ptr, align 8
  %4 = alloca i32, align 4
  %5 = alloca i32, align 4
  store ptr %0, ptr %3, align 8
  store i32 %1, ptr %4, align 4
  %6 = load ptr, ptr %3, align 8
  %7 = load i32, ptr %4, align 4
  %8 = call i32 @Acb_ObjIsTravIdPrev(ptr noundef %6, i32 noundef %7)
  store i32 %8, ptr %5, align 4
  %9 = load ptr, ptr %3, align 8
  %10 = getelementptr inbounds %struct.Acb_Ntk_t_, ptr %9, i32 0, i32 23
  %11 = load i32, ptr %4, align 4
  %12 = load ptr, ptr %3, align 8
  %13 = getelementptr inbounds %struct.Acb_Ntk_t_, ptr %12, i32 0, i32 11
  %14 = load i32, ptr %13, align 8
  %15 = sub nsw i32 %14, 1
  call void @Vec_IntWriteEntry(ptr noundef %10, i32 noundef %11, i32 noundef %15)
  %16 = load i32, ptr %5, align 4
  ret i32 %16
}

; Function Attrs: nounwind uwtable
define internal ptr @Acb_ObjFanins(ptr noundef %0, i32 noundef %1) #0 {
  %3 = alloca ptr, align 8
  %4 = alloca i32, align 4
  store ptr %0, ptr %3, align 8
  store i32 %1, ptr %4, align 4
  %5 = load ptr, ptr %3, align 8
  %6 = getelementptr inbounds %struct.Acb_Ntk_t_, ptr %5, i32 0, i32 16
  %7 = load ptr, ptr %3, align 8
  %8 = load i32, ptr %4, align 4
  %9 = call i32 @Acb_ObjFanOffset(ptr noundef %7, i32 noundef %8)
  %10 = call ptr @Vec_IntEntryP(ptr noundef %6, i32 noundef %9)
  ret ptr %10
}

; Function Attrs: nounwind uwtable
define internal i32 @Acb_ObjSetTravIdCur(ptr noundef %0, i32 noundef %1) #0 {
  %3 = alloca ptr, align 8
  %4 = alloca i32, align 4
  %5 = alloca i32, align 4
  store ptr %0, ptr %3, align 8
  store i32 %1, ptr %4, align 4
  %6 = load ptr, ptr %3, align 8
  %7 = load i32, ptr %4, align 4
  %8 = call i32 @Acb_ObjIsTravIdCur(ptr noundef %6, i32 noundef %7)
  store i32 %8, ptr %5, align 4
  %9 = load ptr, ptr %3, align 8
  %10 = getelementptr inbounds %struct.Acb_Ntk_t_, ptr %9, i32 0, i32 23
  %11 = load i32, ptr %4, align 4
  %12 = load ptr, ptr %3, align 8
  %13 = getelementptr inbounds %struct.Acb_Ntk_t_, ptr %12, i32 0, i32 11
  %14 = load i32, ptr %13, align 8
  call void @Vec_IntWriteEntry(ptr noundef %10, i32 noundef %11, i32 noundef %14)
  %15 = load i32, ptr %5, align 4
  ret i32 %15
}

; Function Attrs: nounwind uwtable
define internal i32 @Acb_ObjIsTravIdPrev(ptr noundef %0, i32 noundef %1) #0 {
  %3 = alloca ptr, align 8
  %4 = alloca i32, align 4
  store ptr %0, ptr %3, align 8
  store i32 %1, ptr %4, align 4
  %5 = load ptr, ptr %3, align 8
  %6 = load i32, ptr %4, align 4
  %7 = call i32 @Acb_ObjTravId(ptr noundef %5, i32 noundef %6)
  %8 = load ptr, ptr %3, align 8
  %9 = getelementptr inbounds %struct.Acb_Ntk_t_, ptr %8, i32 0, i32 11
  %10 = load i32, ptr %9, align 8
  %11 = sub nsw i32 %10, 1
  %12 = icmp eq i32 %7, %11
  %13 = zext i1 %12 to i32
  ret i32 %13
}

; Function Attrs: nounwind uwtable
define i32 @Acb_NtkFindRoots_rec(ptr noundef %0, i32 noundef %1, ptr noundef %2) #0 {
  %4 = alloca i32, align 4
  %5 = alloca ptr, align 8
  %6 = alloca i32, align 4
  %7 = alloca ptr, align 8
  %8 = alloca ptr, align 8
  %9 = alloca i32, align 4
  %10 = alloca i32, align 4
  %11 = alloca i32, align 4
  store ptr %0, ptr %5, align 8
  store i32 %1, ptr %6, align 4
  store ptr %2, ptr %7, align 8
  store i32 0, ptr %11, align 4
  %12 = load ptr, ptr %5, align 8
  %13 = load i32, ptr %6, align 4
  %14 = call i32 @Acb_ObjIsTravIdPrev(ptr noundef %12, i32 noundef %13)
  %15 = icmp ne i32 %14, 0
  br i1 %15, label %16, label %17

16:                                               ; preds = %3
  store i32 1, ptr %4, align 4
  br label %67

17:                                               ; preds = %3
  %18 = load ptr, ptr %5, align 8
  %19 = load i32, ptr %6, align 4
  %20 = call i32 @Acb_ObjSetTravIdCur(ptr noundef %18, i32 noundef %19)
  %21 = icmp ne i32 %20, 0
  br i1 %21, label %22, label %23

22:                                               ; preds = %17
  store i32 0, ptr %4, align 4
  br label %67

23:                                               ; preds = %17
  store i32 0, ptr %10, align 4
  %24 = load ptr, ptr %5, align 8
  %25 = load i32, ptr %6, align 4
  %26 = call ptr @Acb_ObjFanins(ptr noundef %24, i32 noundef %25)
  store ptr %26, ptr %8, align 8
  br label %27

27:                                               ; preds = %49, %23
  %28 = load i32, ptr %10, align 4
  %29 = load ptr, ptr %8, align 8
  %30 = getelementptr inbounds i32, ptr %29, i64 0
  %31 = load i32, ptr %30, align 4
  %32 = icmp slt i32 %28, %31
  br i1 %32, label %33, label %40

33:                                               ; preds = %27
  %34 = load ptr, ptr %8, align 8
  %35 = load i32, ptr %10, align 4
  %36 = add nsw i32 %35, 1
  %37 = sext i32 %36 to i64
  %38 = getelementptr inbounds i32, ptr %34, i64 %37
  %39 = load i32, ptr %38, align 4
  store i32 %39, ptr %9, align 4
  br label %40

40:                                               ; preds = %33, %27
  %41 = phi i1 [ false, %27 ], [ true, %33 ]
  br i1 %41, label %42, label %52

42:                                               ; preds = %40
  %43 = load ptr, ptr %5, align 8
  %44 = load i32, ptr %9, align 4
  %45 = load ptr, ptr %7, align 8
  %46 = call i32 @Acb_NtkFindRoots_rec(ptr noundef %43, i32 noundef %44, ptr noundef %45)
  %47 = load i32, ptr %11, align 4
  %48 = or i32 %47, %46
  store i32 %48, ptr %11, align 4
  br label %49

49:                                               ; preds = %42
  %50 = load i32, ptr %10, align 4
  %51 = add nsw i32 %50, 1
  store i32 %51, ptr %10, align 4
  br label %27, !llvm.loop !43

52:                                               ; preds = %40
  %53 = load i32, ptr %11, align 4
  %54 = icmp ne i32 %53, 0
  br i1 %54, label %55, label %59

55:                                               ; preds = %52
  %56 = load ptr, ptr %5, align 8
  %57 = load i32, ptr %6, align 4
  %58 = call i32 @Acb_ObjSetTravIdPrev(ptr noundef %56, i32 noundef %57)
  br label %59

59:                                               ; preds = %55, %52
  %60 = load i32, ptr %11, align 4
  %61 = icmp ne i32 %60, 0
  br i1 %61, label %62, label %65

62:                                               ; preds = %59
  %63 = load ptr, ptr %7, align 8
  %64 = load i32, ptr %6, align 4
  call void @Vec_BitWriteEntry(ptr noundef %63, i32 noundef %64, i32 noundef 1)
  br label %65

65:                                               ; preds = %62, %59
  %66 = load i32, ptr %11, align 4
  store i32 %66, ptr %4, align 4
  br label %67

67:                                               ; preds = %65, %22, %16
  %68 = load i32, ptr %4, align 4
  ret i32 %68
}