; Function Attrs: nofree nosync nounwind memory(readwrite, inaccessiblemem: none) uwtable
define range(i32 0, 2) i32 @Acb_NtkFindRoots_rec(ptr noundef readonly captures(none) %0, i32 noundef %1, ptr noundef readonly captures(none) %2) local_unnamed_addr #11 {
  %4 = getelementptr i8, ptr %0, i64 96
  %.val29 = load i32, ptr %4, align 8
  %5 = getelementptr i8, ptr %0, i64 264
  %.val30 = load ptr, ptr %5, align 8
  %6 = sext i32 %1 to i64
  %7 = getelementptr inbounds i32, ptr %.val30, i64 %6
  %8 = load i32, ptr %7, align 4
  %9 = add nsw i32 %.val29, -1
  %.not = icmp eq i32 %8, %9
  br i1 %.not, label %.critedge27, label %10

10:                                               ; preds = %3
  %.not35 = icmp eq i32 %8, %.val29
  store i32 %.val29, ptr %7, align 4
  br i1 %.not35, label %.critedge27, label %11

11:                                               ; preds = %10
  %12 = getelementptr i8, ptr %0, i64 136
  %.val = load ptr, ptr %12, align 8
  %13 = getelementptr i8, ptr %0, i64 152
  %.val28 = load ptr, ptr %13, align 8
  %14 = getelementptr inbounds i32, ptr %.val, i64 %6
  %15 = load i32, ptr %14, align 4
  %16 = sext i32 %15 to i64
  %17 = getelementptr inbounds i32, ptr %.val28, i64 %16
  %18 = load i32, ptr %17, align 4
  %19 = icmp sgt i32 %18, 0
  br i1 %19, label %.lr.ph, label %.critedge27

.lr.ph:                                           ; preds = %11, %.lr.ph
  %indvars.iv = phi i64 [ %indvars.iv.next, %.lr.ph ], [ 0, %11 ]
  %.037 = phi i32 [ %23, %.lr.ph ], [ 0, %11 ]
  %indvars.iv.next = add nuw nsw i64 %indvars.iv, 1
  %20 = getelementptr inbounds nuw i32, ptr %17, i64 %indvars.iv.next
  %21 = load i32, ptr %20, align 4
  %22 = tail call i32 @Acb_NtkFindRoots_rec(ptr noundef %0, i32 noundef %21, ptr noundef %2)
  %23 = or i32 %22, %.037
  %24 = load i32, ptr %17, align 4
  %25 = sext i32 %24 to i64
  %26 = icmp slt i64 %indvars.iv.next, %25
  br i1 %26, label %.lr.ph, label %.critedge, !llvm.loop !44

.critedge:                                        ; preds = %.lr.ph
  %.not25 = icmp eq i32 %23, 0
  br i1 %.not25, label %.critedge27, label %27

27:                                               ; preds = %.critedge
  %.val33 = load i32, ptr %4, align 8
  %.val34 = load ptr, ptr %5, align 8
  %28 = getelementptr inbounds i32, ptr %.val34, i64 %6
  %29 = add nsw i32 %.val33, -1
  store i32 %29, ptr %28, align 4
  %30 = and i32 %1, 31
  %31 = shl nuw i32 1, %30
  %32 = getelementptr inbounds nuw i8, ptr %2, i64 8
  %33 = load ptr, ptr %32, align 8
  %34 = ashr i32 %1, 5
  %35 = sext i32 %34 to i64
  %36 = getelementptr inbounds i32, ptr %33, i64 %35
  %37 = load i32, ptr %36, align 4
  %38 = or i32 %37, %31
  store i32 %38, ptr %36, align 4
  br label %.critedge27

.critedge27:                                      ; preds = %11, %27, %.critedge, %10, %3
  %.023 = phi i32 [ 1, %3 ], [ 0, %10 ], [ 0, %.critedge ], [ %23, %27 ], [ 0, %11 ]
  ret i32 %.023
}